target datalayout = "e-m:e-p270:32:32-p271:32:32-p272:64:64-i64:64-i128:128-f80:128-n8:16:32:64-S128"
target triple = "x86_64-pc-linux-gnu"

; Function Attrs: inlinehint nounwind willreturn memory(read) uwtable
define available_externally i32 @atoi(ptr noundef nonnull %0) #14 {
  %2 = alloca ptr, align 8
  store ptr %0, ptr %2, align 8, !tbaa !73
  %3 = load ptr, ptr %2, align 8, !tbaa !73
  %4 = call i64 @strtol(ptr noundef %3, ptr noundef null, i32 noundef 10) #15
  %5 = trunc i64 %4 to i32
  ret i32 %5
}

; Function Attrs: nounwind uwtable
define internal i32 @extract_segment_number(ptr noundef %0) #0 {
  %2 = alloca i32, align 4
  %3 = alloca ptr, align 8
  %4 = alloca ptr, align 8
  %5 = alloca ptr, align 8
  %6 = alloca i32, align 4
  store ptr %0, ptr %3, align 8, !tbaa !73
  call void @llvm.lifetime.start.p0(i64 8, ptr %4) #15
  %7 = load ptr, ptr %3, align 8, !tbaa !73
  %8 = call ptr @strrchr(ptr noundef %7, i32 noundef 46) #16
  store ptr %8, ptr %4, align 8, !tbaa !73
  call void @llvm.lifetime.start.p0(i64 8, ptr %5) #15
  %9 = load ptr, ptr %4, align 8, !tbaa !73
  %10 = getelementptr inbounds i8, ptr %9, i64 -1
  store ptr %10, ptr %5, align 8, !tbaa !73
  br label %11

11:                                               ; preds = %27, %1
  %12 = load ptr, ptr %5, align 8, !tbaa !73
  %13 = load ptr, ptr %3, align 8, !tbaa !73
  %14 = icmp ugt ptr %12, %13
  br i1 %14, label %15, label %25

15:                                               ; preds = %11
  %16 = load ptr, ptr %5, align 8, !tbaa !73
  %17 = load i8, ptr %16, align 1, !tbaa !109
  %18 = sext i8 %17 to i32
  %19 = icmp sge i32 %18, 48
  br i1 %19, label %20, label %25

20:                                               ; preds = %15
  %21 = load ptr, ptr %5, align 8, !tbaa !73
  %22 = load i8, ptr %21, align 1, !tbaa !109
  %23 = sext i8 %22 to i32
  %24 = icmp sle i32 %23, 57
  br label %25

25:                                               ; preds = %20, %15, %11
  %26 = phi i1 [ false, %15 ], [ false, %11 ], [ %24, %20 ]
  br i1 %26, label %27, label %30

27:                                               ; preds = %25
  %28 = load ptr, ptr %5, align 8, !tbaa !73
  %29 = getelementptr inbounds i8, ptr %28, i32 -1
  store ptr %29, ptr %5, align 8, !tbaa !73
  br label %11, !llvm.loop !297

30:                                               ; preds = %25
  %31 = load ptr, ptr %5, align 8, !tbaa !73
  %32 = getelementptr inbounds nuw i8, ptr %31, i32 1
  store ptr %32, ptr %5, align 8, !tbaa !73
  %33 = load ptr, ptr %5, align 8, !tbaa !73
  %34 = load ptr, ptr %4, align 8, !tbaa !73
  %35 = icmp eq ptr %33, %34
  br i1 %35, label %36, label %37

36:                                               ; preds = %30
  store i32 -1, ptr %2, align 4
  store i32 1, ptr %6, align 4
  br label %40

37:                                               ; preds = %30
  %38 = load ptr, ptr %5, align 8, !tbaa !73
  %39 = call i32 @atoi(ptr noundef %38) #16
  store i32 %39, ptr %2, align 4
  store i32 1, ptr %6, align 4
  br label %40

40:                                               ; preds = %37, %36
  call void @llvm.lifetime.end.p0(i64 8, ptr %5) #15
  call void @llvm.lifetime.end.p0(i64 8, ptr %4) #15
  %41 = load i32, ptr %2, align 4
  ret i32 %41
}