; Function Attrs: nofree norecurse nounwind uwtable
define internal fastcc i32 @extract_segment_number(ptr noundef nonnull readonly %0) unnamed_addr #14 {
  %2 = tail call ptr @strrchr(ptr noundef nonnull dereferenceable(1) %0, i32 noundef 46) #18
  br label %3

3:                                                ; preds = %5, %1
  %.pn = phi ptr [ %2, %1 ], [ %.0, %5 ]
  %.0 = getelementptr inbounds i8, ptr %.pn, i64 -1
  %4 = icmp ugt ptr %.0, %0
  br i1 %4, label %5, label %.critedge

5:                                                ; preds = %3
  %6 = load i8, ptr %.0, align 1, !tbaa !102
  %7 = add i8 %6, -48
  %or.cond = icmp ult i8 %7, 10
  br i1 %or.cond, label %3, label %.critedge, !llvm.loop !267

.critedge:                                        ; preds = %5, %3
  %8 = icmp eq ptr %.pn, %2
  br i1 %8, label %12, label %9

9:                                                ; preds = %.critedge
  %10 = tail call i64 @strtol(ptr noundef nonnull captures(none) %.pn, ptr noundef null, i32 noundef 10) #17
  %11 = trunc i64 %10 to i32
  br label %12

12:                                               ; preds = %.critedge, %9
  %.011 = phi i32 [ %11, %9 ], [ -1, %.critedge ]
  ret i32 %.011
}